target datalayout = "e-m:e-p270:32:32-p271:32:32-p272:64:64-i64:64-i128:128-f80:128-n8:16:32:64-S128"
target triple = "x86_64-pc-linux-gnu"

@.str.2 = private unnamed_addr constant [3 x i8] c"wb\00", align 1

; Function Attrs: mustprogress nounwind uwtable
define internal void @_ZL12lodepng_freePv(ptr noundef %0) #3 {
  %2 = alloca ptr, align 8
  store ptr %0, ptr %2, align 8, !tbaa !44
  %3 = load ptr, ptr %2, align 8, !tbaa !44
  call void @free(ptr noundef %3) #17
  ret void
}

; Function Attrs: mustprogress uwtable
define noundef i32 @_Z17lodepng_save_filePKhmPKc(ptr noundef %0, i64 noundef %1, ptr noundef %2) #0 {
  %4 = alloca i32, align 4
  %5 = alloca ptr, align 8
  %6 = alloca i64, align 8
  %7 = alloca ptr, align 8
  %8 = alloca ptr, align 8
  %9 = alloca i32, align 4
  store ptr %0, ptr %5, align 8, !tbaa !11
  store i64 %1, ptr %6, align 8, !tbaa !17
  store ptr %2, ptr %7, align 8, !tbaa !11
  call void @llvm.lifetime.start.p0(i64 8, ptr %8) #17
  %10 = load ptr, ptr %7, align 8, !tbaa !11
  %11 = call noalias ptr @fopen(ptr noundef %10, ptr noundef @.str.2)
  store ptr %11, ptr %8, align 8, !tbaa !13
  %12 = load ptr, ptr %8, align 8, !tbaa !13
  %13 = icmp ne ptr %12, null
  br i1 %13, label %15, label %14

14:                                               ; preds = %3
  store i32 79, ptr %4, align 4
  store i32 1, ptr %9, align 4
  br label %22

15:                                               ; preds = %3
  %16 = load ptr, ptr %5, align 8, !tbaa !11
  %17 = load i64, ptr %6, align 8, !tbaa !17
  %18 = load ptr, ptr %8, align 8, !tbaa !13
  %19 = call i64 @fwrite(ptr noundef %16, i64 noundef 1, i64 noundef %17, ptr noundef %18)
  %20 = load ptr, ptr %8, align 8, !tbaa !13
  %21 = call i32 @fclose(ptr noundef %20)
  store i32 0, ptr %4, align 4
  store i32 1, ptr %9, align 4
  br label %22

22:                                               ; preds = %15, %14
  call void @llvm.lifetime.end.p0(i64 8, ptr %8) #17
  %23 = load i32, ptr %4, align 4
  ret i32 %23
}

; Function Attrs: mustprogress uwtable
define noundef i32 @_Z19lodepng_encode_filePKcPKhjj16LodePNGColorTypej(ptr noundef %0, ptr noundef %1, i32 noundef %2, i32 noundef %3, i32 noundef %4, i32 noundef %5) #0 {
  %7 = alloca ptr, align 8
  %8 = alloca ptr, align 8
  %9 = alloca i32, align 4
  %10 = alloca i32, align 4
  %11 = alloca i32, align 4
  %12 = alloca i32, align 4
  %13 = alloca ptr, align 8
  %14 = alloca i64, align 8
  %15 = alloca i32, align 4
  store ptr %0, ptr %7, align 8, !tbaa !11
  store ptr %1, ptr %8, align 8, !tbaa !11
  store i32 %2, ptr %9, align 4, !tbaa !15
  store i32 %3, ptr %10, align 4, !tbaa !15
  store i32 %4, ptr %11, align 4, !tbaa !113
  store i32 %5, ptr %12, align 4, !tbaa !15
  call void @llvm.lifetime.start.p0(i64 8, ptr %13) #17
  call void @llvm.lifetime.start.p0(i64 8, ptr %14) #17
  call void @llvm.lifetime.start.p0(i64 4, ptr %15) #17
  %16 = load ptr, ptr %8, align 8, !tbaa !11
  %17 = load i32, ptr %9, align 4, !tbaa !15
  %18 = load i32, ptr %10, align 4, !tbaa !15
  %19 = load i32, ptr %11, align 4, !tbaa !113
  %20 = load i32, ptr %12, align 4, !tbaa !15
  %21 = call noundef i32 @_Z21lodepng_encode_memoryPPhPmPKhjj16LodePNGColorTypej(ptr noundef %13, ptr noundef %14, ptr noundef %16, i32 noundef %17, i32 noundef %18, i32 noundef %19, i32 noundef %20)
  store i32 %21, ptr %15, align 4, !tbaa !15
  %22 = load i32, ptr %15, align 4, !tbaa !15
  %23 = icmp ne i32 %22, 0
  br i1 %23, label %29, label %24

24:                                               ; preds = %6
  %25 = load ptr, ptr %13, align 8, !tbaa !11
  %26 = load i64, ptr %14, align 8, !tbaa !17
  %27 = load ptr, ptr %7, align 8, !tbaa !11
  %28 = call noundef i32 @_Z17lodepng_save_filePKhmPKc(ptr noundef %25, i64 noundef %26, ptr noundef %27)
  store i32 %28, ptr %15, align 4, !tbaa !15
  br label %29

29:                                               ; preds = %24, %6
  %30 = load ptr, ptr %13, align 8, !tbaa !11
  call void @_ZL12lodepng_freePv(ptr noundef %30)
  %31 = load i32, ptr %15, align 4, !tbaa !15
  call void @llvm.lifetime.end.p0(i64 4, ptr %15) #17
  call void @llvm.lifetime.end.p0(i64 8, ptr %14) #17
  call void @llvm.lifetime.end.p0(i64 8, ptr %13) #17
  ret i32 %31
}

; Function Attrs: mustprogress uwtable
define noundef i32 @_Z21lodepng_encode32_filePKcPKhjj(ptr noundef %0, ptr noundef %1, i32 noundef %2, i32 noundef %3) #0 {
  %5 = alloca ptr, align 8
  %6 = alloca ptr, align 8
  %7 = alloca i32, align 4
  %8 = alloca i32, align 4
  store ptr %0, ptr %5, align 8, !tbaa !11
  store ptr %1, ptr %6, align 8, !tbaa !11
  store i32 %2, ptr %7, align 4, !tbaa !15
  store i32 %3, ptr %8, align 4, !tbaa !15
  %9 = load ptr, ptr %5, align 8, !tbaa !11
  %10 = load ptr, ptr %6, align 8, !tbaa !11
  %11 = load i32, ptr %7, align 4, !tbaa !15
  %12 = load i32, ptr %8, align 4, !tbaa !15
  %13 = call noundef i32 @_Z19lodepng_encode_filePKcPKhjj16LodePNGColorTypej(ptr noundef %9, ptr noundef %10, i32 noundef %11, i32 noundef %12, i32 noundef 6, i32 noundef 8)
  ret i32 %13
}