; Function Attrs: mustprogress uwtable
define noundef i32 @_Z21lodepng_encode32_filePKcPKhjj(ptr noundef readonly captures(none) %0, ptr noundef %1, i32 noundef %2, i32 noundef %3) local_unnamed_addr #5 {
  %5 = alloca ptr, align 8
  %6 = alloca i64, align 8
  call void @llvm.lifetime.start.p0(i64 8, ptr nonnull %5) #28
  call void @llvm.lifetime.start.p0(i64 8, ptr nonnull %6) #28
  %7 = call noundef i32 @_Z21lodepng_encode_memoryPPhPmPKhjj16LodePNGColorTypej(ptr noundef nonnull %5, ptr noundef nonnull %6, ptr noundef %1, i32 noundef %2, i32 noundef %3, i32 noundef 6, i32 noundef 8)
  %.not.i = icmp eq i32 %7, 0
  %.pre.i = load ptr, ptr %5, align 8, !tbaa !7
  br i1 %.not.i, label %8, label %_Z19lodepng_encode_filePKcPKhjj16LodePNGColorTypej.exit

8:                                                ; preds = %4
  %9 = load i64, ptr %6, align 8, !tbaa !3
  %10 = tail call noalias ptr @fopen(ptr noundef readonly %0, ptr noundef nonnull @.str.2)
  %.not.i.i = icmp eq ptr %10, null
  br i1 %.not.i.i, label %_Z19lodepng_encode_filePKcPKhjj16LodePNGColorTypej.exit, label %11

11:                                               ; preds = %8
  %12 = tail call i64 @fwrite(ptr noundef %.pre.i, i64 noundef 1, i64 noundef %9, ptr noundef nonnull %10)
  %13 = tail call i32 @fclose(ptr noundef nonnull %10)
  br label %_Z19lodepng_encode_filePKcPKhjj16LodePNGColorTypej.exit

_Z19lodepng_encode_filePKcPKhjj16LodePNGColorTypej.exit: ; preds = %4, %8, %11
  %.0.i = phi i32 [ %7, %4 ], [ 0, %11 ], [ 79, %8 ]
  tail call void @free(ptr noundef %.pre.i) #28
  call void @llvm.lifetime.end.p0(i64 8, ptr nonnull %6) #28
  call void @llvm.lifetime.end.p0(i64 8, ptr nonnull %5) #28
  ret i32 %.0.i
}